target datalayout = "e-m:e-p270:32:32-p271:32:32-p272:64:64-i64:64-i128:128-f80:128-n8:16:32:64-S128"
target triple = "x86_64-pc-linux-gnu"

%struct.AVFilterContext = type { ptr, ptr, ptr, ptr, ptr, i32, ptr, ptr, i32, ptr, ptr, i32, i32, ptr, ptr, ptr, ptr, i32, ptr, i32, i32 }
%struct.CurvesContext = type { ptr, i32, [4 x ptr], ptr, [4 x ptr], i32, ptr, [4 x i8], i32, ptr, i32, i32, i32, i32, i32, ptr }
%struct.ThreadData = type { ptr, ptr }
%struct.AVFilterLink = type { ptr, ptr, ptr, ptr, i32, i32, i32, i32, %struct.AVRational, i32, i32, i32, %struct.AVChannelLayout, %struct.AVRational, ptr, i32, %struct.AVFilterFormatsConfig, %struct.AVFilterFormatsConfig }
%struct.AVChannelLayout = type { i32, i32, %union.anon.1, ptr }
%union.anon.1 = type { i64 }
%struct.AVRational = type { i32, i32 }
%struct.AVFilterFormatsConfig = type { ptr, ptr, ptr, ptr, ptr }

; Function Attrs: nounwind uwtable
define internal i32 @filter_frame(ptr noundef %0, ptr noundef %1) #1 {
  %3 = alloca i32, align 4
  %4 = alloca ptr, align 8
  %5 = alloca ptr, align 8
  %6 = alloca ptr, align 8
  %7 = alloca ptr, align 8
  %8 = alloca ptr, align 8
  %9 = alloca ptr, align 8
  %10 = alloca %struct.ThreadData, align 8
  %11 = alloca i32, align 4
  store ptr %0, ptr %4, align 8, !tbaa !43
  store ptr %1, ptr %5, align 8, !tbaa !45
  call void @llvm.lifetime.start.p0(i64 8, ptr %6) #11
  %12 = load ptr, ptr %4, align 8, !tbaa !43
  %13 = getelementptr inbounds nuw %struct.AVFilterLink, ptr %12, i32 0, i32 2
  %14 = load ptr, ptr %13, align 8, !tbaa !47
  store ptr %14, ptr %6, align 8, !tbaa !4
  call void @llvm.lifetime.start.p0(i64 8, ptr %7) #11
  %15 = load ptr, ptr %6, align 8, !tbaa !4
  %16 = getelementptr inbounds nuw %struct.AVFilterContext, ptr %15, i32 0, i32 9
  %17 = load ptr, ptr %16, align 8, !tbaa !9
  store ptr %17, ptr %7, align 8, !tbaa !22
  call void @llvm.lifetime.start.p0(i64 8, ptr %8) #11
  %18 = load ptr, ptr %6, align 8, !tbaa !4
  %19 = getelementptr inbounds nuw %struct.AVFilterContext, ptr %18, i32 0, i32 7
  %20 = load ptr, ptr %19, align 8, !tbaa !55
  %21 = getelementptr inbounds ptr, ptr %20, i64 0
  %22 = load ptr, ptr %21, align 8, !tbaa !43
  store ptr %22, ptr %8, align 8, !tbaa !43
  call void @llvm.lifetime.start.p0(i64 8, ptr %9) #11
  call void @llvm.lifetime.start.p0(i64 16, ptr %10) #11
  %23 = load ptr, ptr %5, align 8, !tbaa !45
  %24 = call i32 @av_frame_is_writable(ptr noundef %23)
  %25 = icmp ne i32 %24, 0
  br i1 %25, label %26, label %28

26:                                               ; preds = %2
  %27 = load ptr, ptr %5, align 8, !tbaa !45
  store ptr %27, ptr %9, align 8, !tbaa !45
  br label %44

28:                                               ; preds = %2
  %29 = load ptr, ptr %8, align 8, !tbaa !43
  %30 = load ptr, ptr %8, align 8, !tbaa !43
  %31 = getelementptr inbounds nuw %struct.AVFilterLink, ptr %30, i32 0, i32 6
  %32 = load i32, ptr %31, align 8, !tbaa !56
  %33 = load ptr, ptr %8, align 8, !tbaa !43
  %34 = getelementptr inbounds nuw %struct.AVFilterLink, ptr %33, i32 0, i32 7
  %35 = load i32, ptr %34, align 4, !tbaa !57
  %36 = call ptr @ff_get_video_buffer(ptr noundef %29, i32 noundef %32, i32 noundef %35)
  store ptr %36, ptr %9, align 8, !tbaa !45
  %37 = load ptr, ptr %9, align 8, !tbaa !45
  %38 = icmp ne ptr %37, null
  br i1 %38, label %40, label %39

39:                                               ; preds = %28
  call void @av_frame_free(ptr noundef %5)
  store i32 -12, ptr %3, align 4
  store i32 1, ptr %11, align 4
  br label %77

40:                                               ; preds = %28
  %41 = load ptr, ptr %9, align 8, !tbaa !45
  %42 = load ptr, ptr %5, align 8, !tbaa !45
  %43 = call i32 @av_frame_copy_props(ptr noundef %41, ptr noundef %42)
  br label %44

44:                                               ; preds = %40, %26
  %45 = load ptr, ptr %5, align 8, !tbaa !45
  %46 = getelementptr inbounds nuw %struct.ThreadData, ptr %10, i32 0, i32 0
  store ptr %45, ptr %46, align 8, !tbaa !58
  %47 = load ptr, ptr %9, align 8, !tbaa !45
  %48 = getelementptr inbounds nuw %struct.ThreadData, ptr %10, i32 0, i32 1
  store ptr %47, ptr %48, align 8, !tbaa !60
  %49 = load ptr, ptr %6, align 8, !tbaa !4
  %50 = load ptr, ptr %7, align 8, !tbaa !22
  %51 = getelementptr inbounds nuw %struct.CurvesContext, ptr %50, i32 0, i32 15
  %52 = load ptr, ptr %51, align 8, !tbaa !61
  %53 = load ptr, ptr %8, align 8, !tbaa !43
  %54 = getelementptr inbounds nuw %struct.AVFilterLink, ptr %53, i32 0, i32 7
  %55 = load i32, ptr %54, align 4, !tbaa !57
  %56 = load ptr, ptr %6, align 8, !tbaa !4
  %57 = call i32 @ff_filter_get_nb_threads(ptr noundef %56) #12
  %58 = icmp sgt i32 %55, %57
  br i1 %58, label %59, label %62

59:                                               ; preds = %44
  %60 = load ptr, ptr %6, align 8, !tbaa !4
  %61 = call i32 @ff_filter_get_nb_threads(ptr noundef %60) #12
  br label %66

62:                                               ; preds = %44
  %63 = load ptr, ptr %8, align 8, !tbaa !43
  %64 = getelementptr inbounds nuw %struct.AVFilterLink, ptr %63, i32 0, i32 7
  %65 = load i32, ptr %64, align 4, !tbaa !57
  br label %66

66:                                               ; preds = %62, %59
  %67 = phi i32 [ %61, %59 ], [ %65, %62 ]
  %68 = call i32 @ff_filter_execute(ptr noundef %49, ptr noundef %52, ptr noundef %10, ptr noundef null, i32 noundef %67)
  %69 = load ptr, ptr %9, align 8, !tbaa !45
  %70 = load ptr, ptr %5, align 8, !tbaa !45
  %71 = icmp ne ptr %69, %70
  br i1 %71, label %72, label %73

72:                                               ; preds = %66
  call void @av_frame_free(ptr noundef %5)
  br label %73

73:                                               ; preds = %72, %66
  %74 = load ptr, ptr %8, align 8, !tbaa !43
  %75 = load ptr, ptr %9, align 8, !tbaa !45
  %76 = call i32 @ff_filter_frame(ptr noundef %74, ptr noundef %75)
  store i32 %76, ptr %3, align 4
  store i32 1, ptr %11, align 4
  br label %77

77:                                               ; preds = %73, %39
  call void @llvm.lifetime.end.p0(i64 16, ptr %10) #11
  call void @llvm.lifetime.end.p0(i64 8, ptr %9) #11
  call void @llvm.lifetime.end.p0(i64 8, ptr %8) #11
  call void @llvm.lifetime.end.p0(i64 8, ptr %7) #11
  call void @llvm.lifetime.end.p0(i64 8, ptr %6) #11
  %78 = load i32, ptr %3, align 4
  ret i32 %78
}